target datalayout = "e-m:e-p270:32:32-p271:32:32-p272:64:64-i64:64-i128:128-f80:128-n8:16:32:64-S128"
target triple = "x86_64-unknown-linux-gnu"

%"struct.net::QuicCompressedCertsCache::UncompressedCerts" = type { %class.scoped_refptr, ptr, ptr }
%class.scoped_refptr = type { ptr }
%"struct.std::hash" = type { i8 }

; Function Attrs: mustprogress uwtable
define linkonce_odr dso_local noundef i64 @_ZNSt10_Hash_impl4hashEPKvmm(ptr noundef %__ptr, i64 noundef %__clength, i64 noundef %__seed) #0 comdat align 2 {
entry:
  %__ptr.addr = alloca ptr, align 8
  %__clength.addr = alloca i64, align 8
  %__seed.addr = alloca i64, align 8
  store ptr %__ptr, ptr %__ptr.addr, align 8
  store i64 %__clength, ptr %__clength.addr, align 8
  store i64 %__seed, ptr %__seed.addr, align 8
  %0 = load ptr, ptr %__ptr.addr, align 8
  %1 = load i64, ptr %__clength.addr, align 8
  %2 = load i64, ptr %__seed.addr, align 8
  %call = call noundef i64 @_ZSt11_Hash_bytesPKvmm(ptr noundef %0, i64 noundef %1, i64 noundef %2)
  ret i64 %call
}

; Function Attrs: mustprogress nounwind uwtable
define linkonce_odr dso_local noundef ptr @_ZNK13scoped_refptrIN3net11ProofSource5ChainEE3getEv(ptr noundef nonnull align 8 dereferenceable(8) %this) #1 comdat align 2 {
entry:
  %this.addr = alloca ptr, align 8
  store ptr %this, ptr %this.addr, align 8
  %this1 = load ptr, ptr %this.addr, align 8
  %ptr_ = getelementptr inbounds %class.scoped_refptr, ptr %this1, i32 0, i32 0
  %0 = load ptr, ptr %ptr_, align 8
  ret ptr %0
}

; Function Attrs: mustprogress nounwind uwtable
define internal void @_ZN3net12_GLOBAL__N_112hash_combineEPmRKm(ptr noundef %seed, ptr noundef nonnull align 8 dereferenceable(8) %val) #1 {
entry:
  %seed.addr = alloca ptr, align 8
  %val.addr = alloca ptr, align 8
  store ptr %seed, ptr %seed.addr, align 8
  store ptr %val, ptr %val.addr, align 8
  %0 = load ptr, ptr %val.addr, align 8
  %1 = load i64, ptr %0, align 8
  %add = add i64 %1, 2654435769
  %2 = load ptr, ptr %seed.addr, align 8
  %3 = load i64, ptr %2, align 8
  %shl = shl i64 %3, 6
  %add1 = add i64 %add, %shl
  %4 = load ptr, ptr %seed.addr, align 8
  %5 = load i64, ptr %4, align 8
  %shr = lshr i64 %5, 2
  %add2 = add i64 %add1, %shr
  %6 = load ptr, ptr %seed.addr, align 8
  %7 = load i64, ptr %6, align 8
  %xor = xor i64 %7, %add2
  store i64 %xor, ptr %6, align 8
  ret void
}

; Function Attrs: mustprogress nounwind uwtable
define linkonce_odr dso_local noundef i64 @_ZNKSt4hashINSt7__cxx1112basic_stringIcSt11char_traitsIcESaIcEEEEclERKS5_(ptr noundef nonnull align 1 dereferenceable(1) %this, ptr noundef nonnull align 8 dereferenceable(32) %__s) #1 comdat align 2 personality ptr @__gxx_personality_v0 {
entry:
  %this.addr = alloca ptr, align 8
  %__s.addr = alloca ptr, align 8
  store ptr %this, ptr %this.addr, align 8
  store ptr %__s, ptr %__s.addr, align 8
  %0 = load ptr, ptr %__s.addr, align 8
  %call = call noundef ptr @_ZNKSt7__cxx1112basic_stringIcSt11char_traitsIcESaIcEE4dataEv(ptr noundef nonnull align 8 dereferenceable(32) %0) #11
  %1 = load ptr, ptr %__s.addr, align 8
  %call2 = call noundef i64 @_ZNKSt7__cxx1112basic_stringIcSt11char_traitsIcESaIcEE6lengthEv(ptr noundef nonnull align 8 dereferenceable(32) %1) #11
  %call3 = invoke noundef i64 @_ZNSt10_Hash_impl4hashEPKvmm(ptr noundef %call, i64 noundef %call2, i64 noundef 3339675911)
          to label %invoke.cont unwind label %terminate.lpad

invoke.cont:                                      ; preds = %entry
  ret i64 %call3

terminate.lpad:                                   ; preds = %entry
  %2 = landingpad { ptr, i32 }
          catch ptr null
  %3 = extractvalue { ptr, i32 } %2, 0
  call void @__clang_call_terminate(ptr %3) #12
  unreachable
}

; Function Attrs: mustprogress uwtable
define dso_local noundef i64 @_ZN3net24QuicCompressedCertsCache28ComputeUncompressedCertsHashERKNS0_17UncompressedCertsE(ptr noundef nonnull align 8 dereferenceable(88) %this, ptr noundef nonnull align 8 dereferenceable(24) %uncompressed_certs) #0 align 2 {
entry:
  %this.addr = alloca ptr, align 8
  %uncompressed_certs.addr = alloca ptr, align 8
  %hash = alloca i64, align 8
  %ref.tmp = alloca %"struct.std::hash", align 1
  %h = alloca i64, align 8
  %ref.tmp2 = alloca %"struct.std::hash", align 1
  %ref.tmp4 = alloca i64, align 8
  store ptr %this, ptr %this.addr, align 8
  store ptr %uncompressed_certs, ptr %uncompressed_certs.addr, align 8
  %0 = load ptr, ptr %uncompressed_certs.addr, align 8
  %client_common_set_hashes = getelementptr inbounds %"struct.net::QuicCompressedCertsCache::UncompressedCerts", ptr %0, i32 0, i32 1
  %1 = load ptr, ptr %client_common_set_hashes, align 8
  %call = call noundef i64 @_ZNKSt4hashINSt7__cxx1112basic_stringIcSt11char_traitsIcESaIcEEEEclERKS5_(ptr noundef nonnull align 1 dereferenceable(1) %ref.tmp, ptr noundef nonnull align 8 dereferenceable(32) %1) #11
  store i64 %call, ptr %hash, align 8
  %2 = load ptr, ptr %uncompressed_certs.addr, align 8
  %client_cached_cert_hashes = getelementptr inbounds %"struct.net::QuicCompressedCertsCache::UncompressedCerts", ptr %2, i32 0, i32 2
  %3 = load ptr, ptr %client_cached_cert_hashes, align 8
  %call3 = call noundef i64 @_ZNKSt4hashINSt7__cxx1112basic_stringIcSt11char_traitsIcESaIcEEEEclERKS5_(ptr noundef nonnull align 1 dereferenceable(1) %ref.tmp2, ptr noundef nonnull align 8 dereferenceable(32) %3) #11
  store i64 %call3, ptr %h, align 8
  call void @_ZN3net12_GLOBAL__N_112hash_combineEPmRKm(ptr noundef %hash, ptr noundef nonnull align 8 dereferenceable(8) %h)
  %4 = load ptr, ptr %uncompressed_certs.addr, align 8
  %chain = getelementptr inbounds %"struct.net::QuicCompressedCertsCache::UncompressedCerts", ptr %4, i32 0, i32 0
  %call5 = call noundef ptr @_ZNK13scoped_refptrIN3net11ProofSource5ChainEE3getEv(ptr noundef nonnull align 8 dereferenceable(8) %chain)
  %5 = ptrtoint ptr %call5 to i64
  store i64 %5, ptr %ref.tmp4, align 8
  call void @_ZN3net12_GLOBAL__N_112hash_combineEPmRKm(ptr noundef %hash, ptr noundef nonnull align 8 dereferenceable(8) %ref.tmp4)
  %6 = load i64, ptr %hash, align 8
  ret i64 %6
}