; Function Attrs: mustprogress nounwind uwtable
define dso_local noundef i64 @_ZN3net24QuicCompressedCertsCache28ComputeUncompressedCertsHashERKNS0_17UncompressedCertsE(ptr nocapture nonnull readnone align 8 %this, ptr nocapture noundef nonnull readonly align 8 dereferenceable(24) %uncompressed_certs) local_unnamed_addr #2 align 2 personality ptr @__gxx_personality_v0 {
entry:
  %client_common_set_hashes = getelementptr inbounds i8, ptr %uncompressed_certs, i64 8
  %0 = load ptr, ptr %client_common_set_hashes, align 8
  %call.i = tail call noundef ptr @_ZNKSt7__cxx1112basic_stringIcSt11char_traitsIcESaIcEE4dataEv(ptr noundef nonnull align 8 dereferenceable(32) %0) #13
  %call2.i = tail call noundef i64 @_ZNKSt7__cxx1112basic_stringIcSt11char_traitsIcESaIcEE6lengthEv(ptr noundef nonnull align 8 dereferenceable(32) %0) #13
  %call.i2.i = invoke noundef i64 @_ZSt11_Hash_bytesPKvmm(ptr noundef %call.i, i64 noundef %call2.i, i64 noundef 3339675911)
          to label %_ZNKSt4hashINSt7__cxx1112basic_stringIcSt11char_traitsIcESaIcEEEEclERKS5_.exit unwind label %terminate.lpad.i

terminate.lpad.i:                                 ; preds = %entry
  %1 = landingpad { ptr, i32 }
          catch ptr null
  %2 = extractvalue { ptr, i32 } %1, 0
  tail call void @__clang_call_terminate(ptr %2) #14
  unreachable

_ZNKSt4hashINSt7__cxx1112basic_stringIcSt11char_traitsIcESaIcEEEEclERKS5_.exit: ; preds = %entry
  %client_cached_cert_hashes = getelementptr inbounds i8, ptr %uncompressed_certs, i64 16
  %3 = load ptr, ptr %client_cached_cert_hashes, align 8
  %call.i3 = tail call noundef ptr @_ZNKSt7__cxx1112basic_stringIcSt11char_traitsIcESaIcEE4dataEv(ptr noundef nonnull align 8 dereferenceable(32) %3) #13
  %call2.i4 = tail call noundef i64 @_ZNKSt7__cxx1112basic_stringIcSt11char_traitsIcESaIcEE6lengthEv(ptr noundef nonnull align 8 dereferenceable(32) %3) #13
  %call.i2.i5 = invoke noundef i64 @_ZSt11_Hash_bytesPKvmm(ptr noundef %call.i3, i64 noundef %call2.i4, i64 noundef 3339675911)
          to label %_ZNKSt4hashINSt7__cxx1112basic_stringIcSt11char_traitsIcESaIcEEEEclERKS5_.exit7 unwind label %terminate.lpad.i6

terminate.lpad.i6:                                ; preds = %_ZNKSt4hashINSt7__cxx1112basic_stringIcSt11char_traitsIcESaIcEEEEclERKS5_.exit
  %4 = landingpad { ptr, i32 }
          catch ptr null
  %5 = extractvalue { ptr, i32 } %4, 0
  tail call void @__clang_call_terminate(ptr %5) #14
  unreachable

_ZNKSt4hashINSt7__cxx1112basic_stringIcSt11char_traitsIcESaIcEEEEclERKS5_.exit7: ; preds = %_ZNKSt4hashINSt7__cxx1112basic_stringIcSt11char_traitsIcESaIcEEEEclERKS5_.exit
  %shl.i = shl i64 %call.i2.i, 6
  %shr.i = lshr i64 %call.i2.i, 2
  %add.i = add i64 %shl.i, 2654435769
  %add1.i = add i64 %add.i, %shr.i
  %add2.i = add i64 %add1.i, %call.i2.i5
  %xor.i = xor i64 %add2.i, %call.i2.i
  %6 = load ptr, ptr %uncompressed_certs, align 8
  %7 = ptrtoint ptr %6 to i64
  %shl.i9 = shl i64 %xor.i, 6
  %shr.i11 = lshr i64 %xor.i, 2
  %add.i8 = add i64 %shl.i9, 2654435769
  %add1.i10 = add i64 %add.i8, %shr.i11
  %add2.i12 = add i64 %add1.i10, %7
  %xor.i13 = xor i64 %add2.i12, %xor.i
  ret i64 %xor.i13
}